; Function Attrs: mustprogress nounwind uwtable
define internal fastcc void @_ZNSt16allocator_traitsISaIZN7rocksdb19WriteBatchWithIndex28MultiGetEntityFromBatchAndDBEPNS0_2DBERKNS0_11ReadOptionsEPNS0_18ColumnFamilyHandleEmPKNS0_5SliceEPNS0_19PinnableWideColumnsEPNS0_6StatusEbPNS0_12ReadCallbackEE10MergeTupleEE7destroyISI_EEvRSJ_PT_(ptr noundef %0) unnamed_addr #1 align 2 personality ptr @__gxx_personality_v0 {
  %2 = getelementptr inbounds nuw i8, ptr %0, i64 144
  tail call void @_ZN7rocksdb12MergeContextD2Ev(ptr noundef nonnull align 8 dereferenceable(25) %2) #26
  %3 = getelementptr inbounds nuw i8, ptr %0, i64 120
  %4 = load ptr, ptr %3, align 8, !tbaa !317
  %.not.i.i.i.i.i.i = icmp eq ptr %4, null
  br i1 %.not.i.i.i.i.i.i, label %_ZNSt6vectorIN7rocksdb10WideColumnESaIS1_EED2Ev.exit.i.i.i, label %5

5:                                                ; preds = %1
  %6 = getelementptr inbounds nuw i8, ptr %0, i64 136
  %7 = load ptr, ptr %6, align 8, !tbaa !320
  %8 = ptrtoint ptr %7 to i64
  %9 = ptrtoint ptr %4 to i64
  %10 = sub i64 %8, %9
  tail call void @_ZdlPvm(ptr noundef nonnull %4, i64 noundef %10) #25
  br label %_ZNSt6vectorIN7rocksdb10WideColumnESaIS1_EED2Ev.exit.i.i.i

_ZNSt6vectorIN7rocksdb10WideColumnESaIS1_EED2Ev.exit.i.i.i: ; preds = %5, %1
  %11 = getelementptr inbounds nuw i8, ptr %0, i64 72
  %12 = load ptr, ptr %11, align 8, !tbaa !11
  %13 = getelementptr inbounds nuw i8, ptr %0, i64 88
  %14 = icmp eq ptr %12, %13
  br i1 %14, label %_ZNKSt7__cxx1112basic_stringIcSt11char_traitsIcESaIcEE11_M_is_localEv.exit.thread.i.i.i.i.i.i, label %_ZNKSt7__cxx1112basic_stringIcSt11char_traitsIcESaIcEE11_M_is_localEv.exit.i.i.i.i.i.i

_ZNKSt7__cxx1112basic_stringIcSt11char_traitsIcESaIcEE11_M_is_localEv.exit.thread.i.i.i.i.i.i: ; preds = %_ZNSt6vectorIN7rocksdb10WideColumnESaIS1_EED2Ev.exit.i.i.i
  %15 = getelementptr inbounds nuw i8, ptr %0, i64 80
  %16 = load i64, ptr %15, align 8, !tbaa !16
  %17 = icmp ult i64 %16, 16
  tail call void @llvm.assume(i1 %17)
  br label %_ZNSt15__new_allocatorIZN7rocksdb19WriteBatchWithIndex28MultiGetEntityFromBatchAndDBEPNS0_2DBERKNS0_11ReadOptionsEPNS0_18ColumnFamilyHandleEmPKNS0_5SliceEPNS0_19PinnableWideColumnsEPNS0_6StatusEbPNS0_12ReadCallbackEE10MergeTupleE7destroyISI_EEvPT_.exit

_ZNKSt7__cxx1112basic_stringIcSt11char_traitsIcESaIcEE11_M_is_localEv.exit.i.i.i.i.i.i: ; preds = %_ZNSt6vectorIN7rocksdb10WideColumnESaIS1_EED2Ev.exit.i.i.i
  %18 = load i64, ptr %13, align 8, !tbaa !17
  %19 = add i64 %18, 1
  tail call void @_ZdlPvm(ptr noundef %12, i64 noundef %19) #25
  br label %_ZNSt15__new_allocatorIZN7rocksdb19WriteBatchWithIndex28MultiGetEntityFromBatchAndDBEPNS0_2DBERKNS0_11ReadOptionsEPNS0_18ColumnFamilyHandleEmPKNS0_5SliceEPNS0_19PinnableWideColumnsEPNS0_6StatusEbPNS0_12ReadCallbackEE10MergeTupleE7destroyISI_EEvPT_.exit

_ZNSt15__new_allocatorIZN7rocksdb19WriteBatchWithIndex28MultiGetEntityFromBatchAndDBEPNS0_2DBERKNS0_11ReadOptionsEPNS0_18ColumnFamilyHandleEmPKNS0_5SliceEPNS0_19PinnableWideColumnsEPNS0_6StatusEbPNS0_12ReadCallbackEE10MergeTupleE7destroyISI_EEvPT_.exit: ; preds = %_ZNKSt7__cxx1112basic_stringIcSt11char_traitsIcESaIcEE11_M_is_localEv.exit.thread.i.i.i.i.i.i, %_ZNKSt7__cxx1112basic_stringIcSt11char_traitsIcESaIcEE11_M_is_localEv.exit.i.i.i.i.i.i
  %20 = getelementptr inbounds nuw i8, ptr %0, i64 40
  tail call void @_ZN7rocksdb9CleanableD2Ev(ptr noundef nonnull align 8 dereferenceable(32) %20) #26
  ret void
}